target datalayout = "e-m:e-p270:32:32-p271:32:32-p272:64:64-i64:64-i128:128-f80:128-n8:16:32:64-S128"
target triple = "x86_64-unknown-linux-gnu"

%"class.Assimp::AC3DImporter" = type { %"class.Assimp::BaseImporter", ptr, i8, i8, i32, ptr, i32, i32, i32, i32 }
%"class.Assimp::BaseImporter" = type { ptr, double, double, %"class.std::__cxx11::basic_string", %"class.std::__exception_ptr::exception_ptr", ptr }
%"class.std::__cxx11::basic_string" = type { %"struct.std::__cxx11::basic_string<char>::_Alloc_hider", i64, %union.anon }
%"struct.std::__cxx11::basic_string<char>::_Alloc_hider" = type { ptr }
%union.anon = type { i64, [8 x i8] }
%"class.std::__exception_ptr::exception_ptr" = type { ptr }

; Function Attrs: mustprogress nounwind uwtable
define hidden void @_ZN6Assimp12AC3DImporterC2Ev(ptr noundef nonnull align 8 dereferenceable(112) %this) unnamed_addr #0 align 2 {
entry:
  %this.addr = alloca ptr, align 8
  store ptr %this, ptr %this.addr, align 8
  %this1 = load ptr, ptr %this.addr, align 8
  call void @_ZN6Assimp12BaseImporterC2Ev(ptr noundef nonnull align 8 dereferenceable(72) %this1) #15
  store ptr getelementptr inbounds ({ [8 x ptr] }, ptr @_ZTVN6Assimp12AC3DImporterE, i32 0, i32 0, i32 2), ptr %this1, align 8
  %buffer = getelementptr inbounds %"class.Assimp::AC3DImporter", ptr %this1, i32 0, i32 1
  store ptr null, ptr %buffer, align 8
  %configSplitBFCull = getelementptr inbounds %"class.Assimp::AC3DImporter", ptr %this1, i32 0, i32 2
  store i8 0, ptr %configSplitBFCull, align 8
  %configEvalSubdivision = getelementptr inbounds %"class.Assimp::AC3DImporter", ptr %this1, i32 0, i32 3
  store i8 0, ptr %configEvalSubdivision, align 1
  %mNumMeshes = getelementptr inbounds %"class.Assimp::AC3DImporter", ptr %this1, i32 0, i32 4
  store i32 0, ptr %mNumMeshes, align 4
  %mLights = getelementptr inbounds %"class.Assimp::AC3DImporter", ptr %this1, i32 0, i32 5
  store ptr null, ptr %mLights, align 8
  %mLightsCounter = getelementptr inbounds %"class.Assimp::AC3DImporter", ptr %this1, i32 0, i32 6
  store i32 0, ptr %mLightsCounter, align 8
  %mGroupsCounter = getelementptr inbounds %"class.Assimp::AC3DImporter", ptr %this1, i32 0, i32 7
  store i32 0, ptr %mGroupsCounter, align 4
  %mPolysCounter = getelementptr inbounds %"class.Assimp::AC3DImporter", ptr %this1, i32 0, i32 8
  store i32 0, ptr %mPolysCounter, align 8
  %mWorldsCounter = getelementptr inbounds %"class.Assimp::AC3DImporter", ptr %this1, i32 0, i32 9
  store i32 0, ptr %mWorldsCounter, align 4
  ret void
}