; Function Attrs: mustprogress nounwind uwtable
define hidden void @_ZN6Assimp12AC3DImporterC2Ev(ptr noundef nonnull align 8 dereferenceable(112) %this) unnamed_addr #0 align 2 {
entry:
  tail call void @_ZN6Assimp12BaseImporterC2Ev(ptr noundef nonnull align 8 dereferenceable(72) %this) #19
  store ptr getelementptr inbounds ({ [8 x ptr] }, ptr @_ZTVN6Assimp12AC3DImporterE, i64 0, i32 0, i64 2), ptr %this, align 8
  %buffer = getelementptr inbounds i8, ptr %this, i64 72
  store ptr null, ptr %buffer, align 8
  %configSplitBFCull = getelementptr inbounds i8, ptr %this, i64 80
  store i8 0, ptr %configSplitBFCull, align 8
  %configEvalSubdivision = getelementptr inbounds i8, ptr %this, i64 81
  store i8 0, ptr %configEvalSubdivision, align 1
  %mNumMeshes = getelementptr inbounds i8, ptr %this, i64 84
  tail call void @llvm.memset.p0.i64(ptr noundef nonnull align 4 dereferenceable(28) %mNumMeshes, i8 0, i64 28, i1 false)
  ret void
}